target datalayout = "e-m:e-p270:32:32-p271:32:32-p272:64:64-i64:64-i128:128-f80:128-n8:16:32:64-S128"
target triple = "x86_64-pc-linux-gnu"

%struct.If_Box_t_ = type { ptr, i8, i8, i8, i8, i32, i32, i32, ptr }
%struct.If_LibBox_t_ = type { i32, ptr }
%struct.Vec_Ptr_t_ = type { i32, i32, ptr }

@.str = private unnamed_addr constant [3 x i8] c"rb\00", align 1
@.str.1 = private unnamed_addr constant [24 x i8] c"Cannot open file \22%s\22.\0A\00", align 1
@.str.8 = private unnamed_addr constant [42 x i8] c"Cannot read library name from file \22%s\22.\0A\00", align 1
@.str.9 = private unnamed_addr constant [45 x i8] c"Wrong box format. Please try \22read_box -e\22.\0A\00", align 1

; Function Attrs: inlinehint nounwind uwtable
define internal ptr @Vec_PtrAlloc(i32 noundef %0) #4 {
  %2 = alloca i32, align 4
  %3 = alloca ptr, align 8
  store i32 %0, ptr %2, align 4, !tbaa !8
  call void @llvm.lifetime.start.p0(i64 8, ptr %3) #10
  %4 = call noalias ptr @malloc(i64 noundef 16) #12
  store ptr %4, ptr %3, align 8, !tbaa !27
  %5 = load i32, ptr %2, align 4, !tbaa !8
  %6 = icmp sgt i32 %5, 0
  br i1 %6, label %7, label %11

7:                                                ; preds = %1
  %8 = load i32, ptr %2, align 4, !tbaa !8
  %9 = icmp slt i32 %8, 8
  br i1 %9, label %10, label %11

10:                                               ; preds = %7
  store i32 8, ptr %2, align 4, !tbaa !8
  br label %11

11:                                               ; preds = %10, %7, %1
  %12 = load ptr, ptr %3, align 8, !tbaa !27
  %13 = getelementptr inbounds nuw %struct.Vec_Ptr_t_, ptr %12, i32 0, i32 1
  store i32 0, ptr %13, align 4, !tbaa !28
  %14 = load i32, ptr %2, align 4, !tbaa !8
  %15 = load ptr, ptr %3, align 8, !tbaa !27
  %16 = getelementptr inbounds nuw %struct.Vec_Ptr_t_, ptr %15, i32 0, i32 0
  store i32 %14, ptr %16, align 8, !tbaa !30
  %17 = load ptr, ptr %3, align 8, !tbaa !27
  %18 = getelementptr inbounds nuw %struct.Vec_Ptr_t_, ptr %17, i32 0, i32 0
  %19 = load i32, ptr %18, align 8, !tbaa !30
  %20 = icmp ne i32 %19, 0
  br i1 %20, label %21, label %28

21:                                               ; preds = %11
  %22 = load ptr, ptr %3, align 8, !tbaa !27
  %23 = getelementptr inbounds nuw %struct.Vec_Ptr_t_, ptr %22, i32 0, i32 0
  %24 = load i32, ptr %23, align 8, !tbaa !30
  %25 = sext i32 %24 to i64
  %26 = mul i64 8, %25
  %27 = call noalias ptr @malloc(i64 noundef %26) #12
  br label %29

28:                                               ; preds = %11
  br label %29

29:                                               ; preds = %28, %21
  %30 = phi ptr [ %27, %21 ], [ null, %28 ]
  %31 = load ptr, ptr %3, align 8, !tbaa !27
  %32 = getelementptr inbounds nuw %struct.Vec_Ptr_t_, ptr %31, i32 0, i32 2
  store ptr %30, ptr %32, align 8, !tbaa !31
  %33 = load ptr, ptr %3, align 8, !tbaa !27
  call void @llvm.lifetime.end.p0(i64 8, ptr %3) #10
  ret ptr %33
}

; Function Attrs: nounwind uwtable
define ptr @If_BoxStart(ptr noundef %0, i32 noundef %1, i32 noundef %2, i32 noundef %3, i32 noundef %4, i32 noundef %5, i32 noundef %6) #0 {
  %8 = alloca ptr, align 8
  %9 = alloca i32, align 4
  %10 = alloca i32, align 4
  %11 = alloca i32, align 4
  %12 = alloca i32, align 4
  %13 = alloca i32, align 4
  %14 = alloca i32, align 4
  %15 = alloca ptr, align 8
  store ptr %0, ptr %8, align 8, !tbaa !3
  store i32 %1, ptr %9, align 4, !tbaa !8
  store i32 %2, ptr %10, align 4, !tbaa !8
  store i32 %3, ptr %11, align 4, !tbaa !8
  store i32 %4, ptr %12, align 4, !tbaa !8
  store i32 %5, ptr %13, align 4, !tbaa !8
  store i32 %6, ptr %14, align 4, !tbaa !8
  call void @llvm.lifetime.start.p0(i64 8, ptr %15) #10
  %16 = call noalias ptr @calloc(i64 noundef 1, i64 noundef 32) #11
  store ptr %16, ptr %15, align 8, !tbaa !10
  %17 = load ptr, ptr %8, align 8, !tbaa !3
  %18 = load ptr, ptr %15, align 8, !tbaa !10
  %19 = getelementptr inbounds nuw %struct.If_Box_t_, ptr %18, i32 0, i32 0
  store ptr %17, ptr %19, align 8, !tbaa !12
  %20 = load i32, ptr %9, align 4, !tbaa !8
  %21 = load ptr, ptr %15, align 8, !tbaa !10
  %22 = getelementptr inbounds nuw %struct.If_Box_t_, ptr %21, i32 0, i32 5
  store i32 %20, ptr %22, align 4, !tbaa !15
  %23 = load i32, ptr %12, align 4, !tbaa !8
  %24 = trunc i32 %23 to i8
  %25 = load ptr, ptr %15, align 8, !tbaa !10
  %26 = getelementptr inbounds nuw %struct.If_Box_t_, ptr %25, i32 0, i32 1
  store i8 %24, ptr %26, align 8, !tbaa !16
  %27 = load i32, ptr %13, align 4, !tbaa !8
  %28 = trunc i32 %27 to i8
  %29 = load ptr, ptr %15, align 8, !tbaa !10
  %30 = getelementptr inbounds nuw %struct.If_Box_t_, ptr %29, i32 0, i32 2
  store i8 %28, ptr %30, align 1, !tbaa !17
  %31 = load i32, ptr %14, align 4, !tbaa !8
  %32 = trunc i32 %31 to i8
  %33 = load ptr, ptr %15, align 8, !tbaa !10
  %34 = getelementptr inbounds nuw %struct.If_Box_t_, ptr %33, i32 0, i32 3
  store i8 %32, ptr %34, align 2, !tbaa !18
  %35 = load i32, ptr %10, align 4, !tbaa !8
  %36 = load ptr, ptr %15, align 8, !tbaa !10
  %37 = getelementptr inbounds nuw %struct.If_Box_t_, ptr %36, i32 0, i32 6
  store i32 %35, ptr %37, align 8, !tbaa !19
  %38 = load i32, ptr %11, align 4, !tbaa !8
  %39 = load ptr, ptr %15, align 8, !tbaa !10
  %40 = getelementptr inbounds nuw %struct.If_Box_t_, ptr %39, i32 0, i32 7
  store i32 %38, ptr %40, align 4, !tbaa !20
  %41 = load i32, ptr %10, align 4, !tbaa !8
  %42 = load i32, ptr %11, align 4, !tbaa !8
  %43 = mul nsw i32 %41, %42
  %44 = sext i32 %43 to i64
  %45 = call noalias ptr @calloc(i64 noundef %44, i64 noundef 4) #11
  %46 = load ptr, ptr %15, align 8, !tbaa !10
  %47 = getelementptr inbounds nuw %struct.If_Box_t_, ptr %46, i32 0, i32 8
  store ptr %45, ptr %47, align 8, !tbaa !21
  %48 = load ptr, ptr %15, align 8, !tbaa !10
  call void @llvm.lifetime.end.p0(i64 8, ptr %15) #10
  ret ptr %48
}

; Function Attrs: inlinehint nounwind willreturn memory(read) uwtable
define available_externally i32 @atoi(ptr noundef nonnull %0) #8 {
  %2 = alloca ptr, align 8
  store ptr %0, ptr %2, align 8, !tbaa !3
  %3 = load ptr, ptr %2, align 8, !tbaa !3
  %4 = call i64 @strtol(ptr noundef %3, ptr noundef null, i32 noundef 10) #10
  %5 = trunc i64 %4 to i32
  ret i32 %5
}

; Function Attrs: inlinehint nounwind uwtable
define internal ptr @Abc_UtilStrsav(ptr noundef %0) #4 {
  %2 = alloca ptr, align 8
  store ptr %0, ptr %2, align 8, !tbaa !3
  %3 = load ptr, ptr %2, align 8, !tbaa !3
  %4 = icmp ne ptr %3, null
  br i1 %4, label %5, label %13

5:                                                ; preds = %1
  %6 = load ptr, ptr %2, align 8, !tbaa !3
  %7 = call i64 @strlen(ptr noundef %6) #13
  %8 = add i64 %7, 1
  %9 = mul i64 1, %8
  %10 = call noalias ptr @malloc(i64 noundef %9) #12
  %11 = load ptr, ptr %2, align 8, !tbaa !3
  %12 = call ptr @strcpy(ptr noundef %10, ptr noundef %11) #10
  br label %14

13:                                               ; preds = %1
  br label %14

14:                                               ; preds = %13, %5
  %15 = phi ptr [ %12, %5 ], [ null, %13 ]
  ret ptr %15
}

; Function Attrs: nounwind uwtable
define ptr @If_LibBoxStart() #0 {
  %1 = alloca ptr, align 8
  call void @llvm.lifetime.start.p0(i64 8, ptr %1) #10
  %2 = call noalias ptr @calloc(i64 noundef 1, i64 noundef 16) #11
  store ptr %2, ptr %1, align 8, !tbaa !22
  %3 = call ptr @Vec_PtrAlloc(i32 noundef 100)
  %4 = load ptr, ptr %1, align 8, !tbaa !22
  %5 = getelementptr inbounds nuw %struct.If_LibBox_t_, ptr %4, i32 0, i32 1
  store ptr %3, ptr %5, align 8, !tbaa !24
  %6 = load ptr, ptr %1, align 8, !tbaa !22
  call void @llvm.lifetime.end.p0(i64 8, ptr %1) #10
  ret ptr %6
}

; Function Attrs: nounwind uwtable
define ptr @If_LibBoxRead(ptr noundef %0) #0 {
  %2 = alloca ptr, align 8
  %3 = alloca ptr, align 8
  %4 = alloca ptr, align 8
  %5 = alloca ptr, align 8
  %6 = alloca ptr, align 8
  %7 = alloca ptr, align 8
  %8 = alloca ptr, align 8
  %9 = alloca i32, align 4
  %10 = alloca i32, align 4
  %11 = alloca i32, align 4
  %12 = alloca i32, align 4
  %13 = alloca i32, align 4
  %14 = alloca i32, align 4
  store ptr %0, ptr %3, align 8, !tbaa !3
  call void @llvm.lifetime.start.p0(i64 8, ptr %4) #10
  call void @llvm.lifetime.start.p0(i64 8, ptr %5) #10
  call void @llvm.lifetime.start.p0(i64 8, ptr %6) #10
  call void @llvm.lifetime.start.p0(i64 8, ptr %7) #10
  call void @llvm.lifetime.start.p0(i64 8, ptr %8) #10
  call void @llvm.lifetime.start.p0(i64 4, ptr %9) #10
  call void @llvm.lifetime.start.p0(i64 4, ptr %10) #10
  call void @llvm.lifetime.start.p0(i64 4, ptr %11) #10
  call void @llvm.lifetime.start.p0(i64 4, ptr %12) #10
  call void @llvm.lifetime.start.p0(i64 4, ptr %13) #10
  %15 = load ptr, ptr %3, align 8, !tbaa !3
  %16 = call noalias ptr @fopen(ptr noundef %15, ptr noundef @.str)
  store ptr %16, ptr %4, align 8, !tbaa !38
  %17 = load ptr, ptr %4, align 8, !tbaa !38
  %18 = icmp eq ptr %17, null
  br i1 %18, label %19, label %22

19:                                               ; preds = %1
  %20 = load ptr, ptr %3, align 8, !tbaa !3
  %21 = call i32 (ptr, ...) @printf(ptr noundef @.str.1, ptr noundef %20)
  store ptr null, ptr %2, align 8
  store i32 1, ptr %14, align 4
  br label %113

22:                                               ; preds = %1
  %23 = load ptr, ptr %4, align 8, !tbaa !38
  %24 = call ptr @If_LibBoxGetToken(ptr noundef %23)
  store ptr %24, ptr %7, align 8, !tbaa !3
  %25 = load ptr, ptr %7, align 8, !tbaa !3
  %26 = icmp eq ptr %25, null
  br i1 %26, label %27, label %32

27:                                               ; preds = %22
  %28 = load ptr, ptr %4, align 8, !tbaa !38
  %29 = call i32 @fclose(ptr noundef %28)
  %30 = load ptr, ptr %3, align 8, !tbaa !3
  %31 = call i32 (ptr, ...) @printf(ptr noundef @.str.8, ptr noundef %30)
  store ptr null, ptr %2, align 8
  store i32 1, ptr %14, align 4
  br label %113

32:                                               ; preds = %22
  %33 = load ptr, ptr %7, align 8, !tbaa !3
  %34 = getelementptr inbounds i8, ptr %33, i64 0
  %35 = load i8, ptr %34, align 1, !tbaa !41
  %36 = sext i8 %35 to i32
  %37 = icmp eq i32 %36, 46
  br i1 %37, label %38, label %42

38:                                               ; preds = %32
  %39 = load ptr, ptr %4, align 8, !tbaa !38
  %40 = call i32 @fclose(ptr noundef %39)
  %41 = call i32 (ptr, ...) @printf(ptr noundef @.str.9)
  store ptr null, ptr %2, align 8
  store i32 1, ptr %14, align 4
  br label %113

42:                                               ; preds = %32
  %43 = call ptr @If_LibBoxStart()
  store ptr %43, ptr %5, align 8, !tbaa !22
  br label %44

44:                                               ; preds = %106, %42
  %45 = load ptr, ptr %7, align 8, !tbaa !3
  %46 = icmp ne ptr %45, null
  br i1 %46, label %47, label %109

47:                                               ; preds = %44
  %48 = load ptr, ptr %7, align 8, !tbaa !3
  %49 = call ptr @Abc_UtilStrsav(ptr noundef %48)
  store ptr %49, ptr %8, align 8, !tbaa !3
  %50 = load ptr, ptr %4, align 8, !tbaa !38
  %51 = call ptr @If_LibBoxGetToken(ptr noundef %50)
  store ptr %51, ptr %7, align 8, !tbaa !3
  %52 = load ptr, ptr %7, align 8, !tbaa !3
  %53 = call i32 @atoi(ptr noundef %52) #13
  store i32 %53, ptr %10, align 4, !tbaa !8
  %54 = load ptr, ptr %4, align 8, !tbaa !38
  %55 = call ptr @If_LibBoxGetToken(ptr noundef %54)
  store ptr %55, ptr %7, align 8, !tbaa !3
  %56 = load ptr, ptr %7, align 8, !tbaa !3
  %57 = call i32 @atoi(ptr noundef %56) #13
  %58 = icmp ne i32 %57, 0
  %59 = xor i1 %58, true
  %60 = zext i1 %59 to i32
  store i32 %60, ptr %11, align 4, !tbaa !8
  %61 = load ptr, ptr %4, align 8, !tbaa !38
  %62 = call ptr @If_LibBoxGetToken(ptr noundef %61)
  store ptr %62, ptr %7, align 8, !tbaa !3
  %63 = load ptr, ptr %7, align 8, !tbaa !3
  %64 = call i32 @atoi(ptr noundef %63) #13
  store i32 %64, ptr %12, align 4, !tbaa !8
  %65 = load ptr, ptr %4, align 8, !tbaa !38
  %66 = call ptr @If_LibBoxGetToken(ptr noundef %65)
  store ptr %66, ptr %7, align 8, !tbaa !3
  %67 = load ptr, ptr %7, align 8, !tbaa !3
  %68 = call i32 @atoi(ptr noundef %67) #13
  store i32 %68, ptr %13, align 4, !tbaa !8
  %69 = load ptr, ptr %8, align 8, !tbaa !3
  %70 = load i32, ptr %10, align 4, !tbaa !8
  %71 = load i32, ptr %12, align 4, !tbaa !8
  %72 = load i32, ptr %13, align 4, !tbaa !8
  %73 = load i32, ptr %11, align 4, !tbaa !8
  %74 = call ptr @If_BoxStart(ptr noundef %69, i32 noundef %70, i32 noundef %71, i32 noundef %72, i32 noundef 0, i32 noundef %73, i32 noundef 0)
  store ptr %74, ptr %6, align 8, !tbaa !10
  %75 = load ptr, ptr %5, align 8, !tbaa !22
  %76 = load ptr, ptr %6, align 8, !tbaa !10
  call void @If_LibBoxAdd(ptr noundef %75, ptr noundef %76)
  store i32 0, ptr %9, align 4, !tbaa !8
  br label %77

77:                                               ; preds = %103, %47
  %78 = load i32, ptr %9, align 4, !tbaa !8
  %79 = load i32, ptr %12, align 4, !tbaa !8
  %80 = load i32, ptr %13, align 4, !tbaa !8
  %81 = mul nsw i32 %79, %80
  %82 = icmp slt i32 %78, %81
  br i1 %82, label %83, label %106

83:                                               ; preds = %77
  %84 = load ptr, ptr %4, align 8, !tbaa !38
  %85 = call ptr @If_LibBoxGetToken(ptr noundef %84)
  store ptr %85, ptr %7, align 8, !tbaa !3
  %86 = load ptr, ptr %7, align 8, !tbaa !3
  %87 = getelementptr inbounds i8, ptr %86, i64 0
  %88 = load i8, ptr %87, align 1, !tbaa !41
  %89 = sext i8 %88 to i32
  %90 = icmp eq i32 %89, 45
  br i1 %90, label %91, label %92

91:                                               ; preds = %83
  br label %95

92:                                               ; preds = %83
  %93 = load ptr, ptr %7, align 8, !tbaa !3
  %94 = call i32 @atoi(ptr noundef %93) #13
  br label %95

95:                                               ; preds = %92, %91
  %96 = phi i32 [ -1000000000, %91 ], [ %94, %92 ]
  %97 = load ptr, ptr %6, align 8, !tbaa !10
  %98 = getelementptr inbounds nuw %struct.If_Box_t_, ptr %97, i32 0, i32 8
  %99 = load ptr, ptr %98, align 8, !tbaa !21
  %100 = load i32, ptr %9, align 4, !tbaa !8
  %101 = sext i32 %100 to i64
  %102 = getelementptr inbounds i32, ptr %99, i64 %101
  store i32 %96, ptr %102, align 4, !tbaa !8
  br label %103

103:                                              ; preds = %95
  %104 = load i32, ptr %9, align 4, !tbaa !8
  %105 = add nsw i32 %104, 1
  store i32 %105, ptr %9, align 4, !tbaa !8
  br label %77, !llvm.loop !47

106:                                              ; preds = %77
  %107 = load ptr, ptr %4, align 8, !tbaa !38
  %108 = call ptr @If_LibBoxGetToken(ptr noundef %107)
  store ptr %108, ptr %7, align 8, !tbaa !3
  br label %44, !llvm.loop !48

109:                                              ; preds = %44
  %110 = load ptr, ptr %4, align 8, !tbaa !38
  %111 = call i32 @fclose(ptr noundef %110)
  %112 = load ptr, ptr %5, align 8, !tbaa !22
  store ptr %112, ptr %2, align 8
  store i32 1, ptr %14, align 4
  br label %113

113:                                              ; preds = %109, %38, %27, %19
  call void @llvm.lifetime.end.p0(i64 4, ptr %13) #10
  call void @llvm.lifetime.end.p0(i64 4, ptr %12) #10
  call void @llvm.lifetime.end.p0(i64 4, ptr %11) #10
  call void @llvm.lifetime.end.p0(i64 4, ptr %10) #10
  call void @llvm.lifetime.end.p0(i64 4, ptr %9) #10
  call void @llvm.lifetime.end.p0(i64 8, ptr %8) #10
  call void @llvm.lifetime.end.p0(i64 8, ptr %7) #10
  call void @llvm.lifetime.end.p0(i64 8, ptr %6) #10
  call void @llvm.lifetime.end.p0(i64 8, ptr %5) #10
  call void @llvm.lifetime.end.p0(i64 8, ptr %4) #10
  %114 = load ptr, ptr %2, align 8
  ret ptr %114
}