; Function Attrs: nounwind uwtable
define noalias noundef ptr @If_LibBoxRead(ptr noundef %0) local_unnamed_addr #5 {
  %2 = tail call noalias ptr @fopen(ptr noundef %0, ptr noundef nonnull @.str)
  %3 = icmp eq ptr %2, null
  br i1 %3, label %4, label %6

4:                                                ; preds = %1
  %5 = tail call i32 (ptr, ...) @printf(ptr noundef nonnull dereferenceable(1) @.str.1, ptr noundef %0)
  br label %73

6:                                                ; preds = %1
  %7 = tail call ptr @If_LibBoxGetToken(ptr noundef nonnull %2)
  %8 = icmp eq ptr %7, null
  br i1 %8, label %9, label %12

9:                                                ; preds = %6
  %10 = tail call i32 @fclose(ptr noundef nonnull %2)
  %11 = tail call i32 (ptr, ...) @printf(ptr noundef nonnull dereferenceable(1) @.str.8, ptr noundef %0)
  br label %73

12:                                               ; preds = %6
  %13 = load i8, ptr %7, align 1, !tbaa !33
  %14 = icmp eq i8 %13, 46
  br i1 %14, label %15, label %17

15:                                               ; preds = %12
  %16 = tail call i32 @fclose(ptr noundef nonnull %2)
  %puts = tail call i32 @puts(ptr nonnull dereferenceable(1) @str.1)
  br label %73

17:                                               ; preds = %12
  %18 = tail call noalias dereferenceable_or_null(16) ptr @calloc(i64 noundef 1, i64 noundef 16) #18
  %19 = tail call noalias dereferenceable_or_null(16) ptr @malloc(i64 noundef 16) #20
  %20 = getelementptr inbounds nuw i8, ptr %19, i64 4
  store i32 0, ptr %20, align 4, !tbaa !18
  store i32 100, ptr %19, align 8, !tbaa !20
  %21 = tail call noalias dereferenceable_or_null(800) ptr @malloc(i64 noundef 800) #20
  %22 = getelementptr inbounds nuw i8, ptr %19, i64 8
  store ptr %21, ptr %22, align 8, !tbaa !21
  %23 = getelementptr inbounds nuw i8, ptr %18, i64 8
  store ptr %19, ptr %23, align 8, !tbaa !22
  br label %Abc_UtilStrsav.exit

Abc_UtilStrsav.exit:                              ; preds = %17, %._crit_edge
  %.03848 = phi ptr [ %7, %17 ], [ %70, %._crit_edge ]
  %24 = tail call i64 @strlen(ptr noundef nonnull readonly dereferenceable(1) %.03848) #21
  %25 = add i64 %24, 1
  %26 = tail call noalias ptr @malloc(i64 noundef %25) #20
  %27 = tail call ptr @strcpy(ptr noundef nonnull dereferenceable(1) %26, ptr noundef nonnull readonly dereferenceable(1) %.03848) #19
  %28 = tail call ptr @If_LibBoxGetToken(ptr noundef nonnull %2)
  %29 = tail call i64 @strtol(ptr noundef nonnull captures(none) %28, ptr noundef null, i32 noundef 10) #19
  %30 = trunc i64 %29 to i32
  %31 = tail call ptr @If_LibBoxGetToken(ptr noundef nonnull %2)
  %32 = tail call i64 @strtol(ptr noundef nonnull captures(none) %31, ptr noundef null, i32 noundef 10) #19
  %33 = and i64 %32, 4294967295
  %.not42 = icmp eq i64 %33, 0
  %34 = tail call ptr @If_LibBoxGetToken(ptr noundef nonnull %2)
  %35 = tail call i64 @strtol(ptr noundef nonnull captures(none) %34, ptr noundef null, i32 noundef 10) #19
  %36 = trunc i64 %35 to i32
  %37 = tail call ptr @If_LibBoxGetToken(ptr noundef nonnull %2)
  %38 = tail call i64 @strtol(ptr noundef nonnull captures(none) %37, ptr noundef null, i32 noundef 10) #19
  %39 = trunc i64 %38 to i32
  %40 = tail call noalias dereferenceable_or_null(32) ptr @calloc(i64 noundef 1, i64 noundef 32) #18
  store ptr %26, ptr %40, align 8, !tbaa !3
  %41 = getelementptr inbounds nuw i8, ptr %40, i64 12
  store i32 %30, ptr %41, align 4, !tbaa !11
  %42 = getelementptr inbounds nuw i8, ptr %40, i64 8
  store i8 0, ptr %42, align 8, !tbaa !12
  %43 = zext i1 %.not42 to i8
  %44 = getelementptr inbounds nuw i8, ptr %40, i64 9
  store i8 %43, ptr %44, align 1, !tbaa !13
  %45 = getelementptr inbounds nuw i8, ptr %40, i64 10
  store i8 0, ptr %45, align 2, !tbaa !14
  %46 = getelementptr inbounds nuw i8, ptr %40, i64 16
  store i32 %36, ptr %46, align 8, !tbaa !15
  %47 = getelementptr inbounds nuw i8, ptr %40, i64 20
  store i32 %39, ptr %47, align 4, !tbaa !16
  %48 = mul nsw i32 %39, %36
  %49 = sext i32 %48 to i64
  %50 = tail call noalias ptr @calloc(i64 noundef %49, i64 noundef 4) #18
  %51 = getelementptr inbounds nuw i8, ptr %40, i64 24
  store ptr %50, ptr %51, align 8, !tbaa !17
  tail call void @If_LibBoxAdd(ptr noundef %18, ptr noundef nonnull %40)
  %52 = icmp sgt i32 %48, 0
  br i1 %52, label %.outer.i.preheader.preheader, label %._crit_edge

.outer.i.preheader.preheader:                     ; preds = %Abc_UtilStrsav.exit
  %wide.trip.count = zext nneg i32 %48 to i64
  br label %.outer.i.preheader

.outer.i.preheader:                               ; preds = %.outer.i.preheader.preheader, %66
  %indvars.iv = phi i64 [ 0, %.outer.i.preheader.preheader ], [ %indvars.iv.next, %66 ]
  br label %.outer.i

.outer.i:                                         ; preds = %.outer.i.preheader, %.split22.us.i
  %.0.ph.i = phi ptr [ %59, %.split22.us.i ], [ @If_LibBoxGetToken.pBuffer, %.outer.i.preheader ]
  %53 = icmp ugt ptr %.0.ph.i, @If_LibBoxGetToken.pBuffer
  br i1 %53, label %.outer.split.us.i, label %.outer.split.i, !llvm.loop !39

.outer.split.us.i:                                ; preds = %.outer.i
  %54 = tail call i32 @fgetc(ptr noundef nonnull %2)
  switch i32 %54, label %.loopexit.us.i [
    i32 -1, label %If_LibBoxGetToken.exit
    i32 35, label %.preheader.us.i
  ]

.preheader.us.i:                                  ; preds = %.outer.split.us.i, %.preheader.us.i
  %55 = tail call i32 @fgetc(ptr noundef nonnull %2)
  switch i32 %55, label %.preheader.us.i [
    i32 -1, label %.loopexit.us.i
    i32 10, label %.loopexit.us.i
  ]

.loopexit.us.i:                                   ; preds = %.preheader.us.i, %.preheader.us.i, %.outer.split.us.i
  %.019.us.i = phi i32 [ %54, %.outer.split.us.i ], [ %55, %.preheader.us.i ], [ %55, %.preheader.us.i ]
  switch i32 %.019.us.i, label %.split22.us.i [
    i32 32, label %If_LibBoxGetToken.exit
    i32 13, label %If_LibBoxGetToken.exit
    i32 10, label %If_LibBoxGetToken.exit
    i32 9, label %If_LibBoxGetToken.exit
  ]

.outer.split.i:                                   ; preds = %.outer.i, %.outer.split.i.backedge
  %56 = tail call i32 @fgetc(ptr noundef nonnull %2)
  switch i32 %56, label %.loopexit.i [
    i32 -1, label %If_LibBoxGetToken.exit
    i32 35, label %.preheader.i
  ]

.preheader.i:                                     ; preds = %.outer.split.i, %.preheader.i
  %57 = tail call i32 @fgetc(ptr noundef nonnull %2)
  switch i32 %57, label %.preheader.i [
    i32 -1, label %.loopexit.i
    i32 10, label %.loopexit.i
  ]

.loopexit.i:                                      ; preds = %.preheader.i, %.preheader.i, %.outer.split.i
  %.019.i = phi i32 [ %56, %.outer.split.i ], [ %57, %.preheader.i ], [ %57, %.preheader.i ]
  switch i32 %.019.i, label %.split22.us.i [
    i32 32, label %.outer.split.i.backedge
    i32 13, label %.outer.split.i.backedge
    i32 10, label %.outer.split.i.backedge
    i32 9, label %.outer.split.i.backedge
  ]

.outer.split.i.backedge:                          ; preds = %.loopexit.i, %.loopexit.i, %.loopexit.i, %.loopexit.i
  br label %.outer.split.i

.split22.us.i:                                    ; preds = %.loopexit.i, %.loopexit.us.i
  %.us-phi23.i = phi i32 [ %.019.us.i, %.loopexit.us.i ], [ %.019.i, %.loopexit.i ]
  %58 = trunc i32 %.us-phi23.i to i8
  %59 = getelementptr i8, ptr %.0.ph.i, i64 1
  store i8 %58, ptr %.0.ph.i, align 1, !tbaa !33
  br label %.outer.i, !llvm.loop !39

If_LibBoxGetToken.exit:                           ; preds = %.outer.split.us.i, %.loopexit.us.i, %.loopexit.us.i, %.loopexit.us.i, %.loopexit.us.i, %.outer.split.i
  %60 = phi ptr [ null, %.outer.split.i ], [ @If_LibBoxGetToken.pBuffer, %.loopexit.us.i ], [ @If_LibBoxGetToken.pBuffer, %.loopexit.us.i ], [ @If_LibBoxGetToken.pBuffer, %.loopexit.us.i ], [ @If_LibBoxGetToken.pBuffer, %.loopexit.us.i ], [ @If_LibBoxGetToken.pBuffer, %.outer.split.us.i ]
  store i8 0, ptr %.0.ph.i, align 1, !tbaa !33
  %61 = load i8, ptr %60, align 16, !tbaa !33
  %62 = icmp eq i8 %61, 45
  br i1 %62, label %66, label %63

63:                                               ; preds = %If_LibBoxGetToken.exit
  %64 = tail call i64 @strtol(ptr noundef nonnull captures(none) %60, ptr noundef null, i32 noundef 10) #19
  %65 = trunc i64 %64 to i32
  br label %66

66:                                               ; preds = %If_LibBoxGetToken.exit, %63
  %67 = phi i32 [ %65, %63 ], [ -1000000000, %If_LibBoxGetToken.exit ]
  %68 = load ptr, ptr %51, align 8, !tbaa !17
  %69 = getelementptr inbounds nuw i32, ptr %68, i64 %indvars.iv
  store i32 %67, ptr %69, align 4, !tbaa !34
  %indvars.iv.next = add nuw nsw i64 %indvars.iv, 1
  %exitcond.not = icmp eq i64 %indvars.iv.next, %wide.trip.count
  br i1 %exitcond.not, label %._crit_edge, label %.outer.i.preheader, !llvm.loop !40

._crit_edge:                                      ; preds = %66, %Abc_UtilStrsav.exit
  %70 = tail call ptr @If_LibBoxGetToken(ptr noundef nonnull %2)
  %.not = icmp eq ptr %70, null
  br i1 %.not, label %71, label %Abc_UtilStrsav.exit, !llvm.loop !41

71:                                               ; preds = %._crit_edge
  %72 = tail call i32 @fclose(ptr noundef nonnull %2)
  br label %73

73:                                               ; preds = %71, %15, %9, %4
  %.0 = phi ptr [ null, %4 ], [ null, %9 ], [ null, %15 ], [ %18, %71 ]
  ret ptr %.0
}